target datalayout = "e-m:e-p270:32:32-p271:32:32-p272:64:64-i64:64-i128:128-f80:128-n8:16:32:64-S128"
target triple = "x86_64-pc-linux-gnu"

@.str.14 = private unnamed_addr constant [35 x i8] c"../openssl/test/asn1_decode_test.c\00", align 1
@__const.test_utctime.der = private unnamed_addr constant [13 x i8] c"\17\0B0205104700Z", align 1
@.str.16 = private unnamed_addr constant [8 x i8] c"utctime\00", align 1

; Function Attrs: nounwind uwtable
define internal i32 @test_utctime() #0 {
  %1 = alloca [13 x i8], align 1
  %2 = alloca ptr, align 8
  %3 = alloca i32, align 4
  %4 = alloca i32, align 4
  %5 = alloca ptr, align 8
  call void @llvm.lifetime.start.p0(i64 13, ptr %1) #4
  call void @llvm.memcpy.p0.p0.i64(ptr align 1 %1, ptr align 1 @__const.test_utctime.der, i64 13, i1 false)
  call void @llvm.lifetime.start.p0(i64 8, ptr %2) #4
  call void @llvm.lifetime.start.p0(i64 4, ptr %3) #4
  call void @llvm.lifetime.start.p0(i64 4, ptr %4) #4
  store i32 1, ptr %4, align 4, !tbaa !10
  call void @llvm.lifetime.start.p0(i64 8, ptr %5) #4
  %6 = getelementptr inbounds [13 x i8], ptr %1, i64 0, i64 0
  store ptr %6, ptr %2, align 8, !tbaa !4
  store i32 13, ptr %3, align 4, !tbaa !10
  %7 = load i32, ptr %3, align 4, !tbaa !10
  %8 = sext i32 %7 to i64
  %9 = call ptr @d2i_ASN1_UTCTIME(ptr noundef null, ptr noundef %2, i64 noundef %8)
  store ptr %9, ptr %5, align 8, !tbaa !12
  %10 = load ptr, ptr %5, align 8, !tbaa !12
  %11 = call i32 @test_ptr_null(ptr noundef @.str.14, i32 noundef 206, ptr noundef @.str.16, ptr noundef %10)
  %12 = icmp ne i32 %11, 0
  br i1 %12, label %14, label %13

13:                                               ; preds = %0
  store i32 0, ptr %4, align 4, !tbaa !10
  br label %14

14:                                               ; preds = %13, %0
  %15 = load ptr, ptr %5, align 8, !tbaa !12
  call void @ASN1_UTCTIME_free(ptr noundef %15)
  %16 = load i32, ptr %4, align 4, !tbaa !10
  call void @llvm.lifetime.end.p0(i64 8, ptr %5) #4
  call void @llvm.lifetime.end.p0(i64 4, ptr %4) #4
  call void @llvm.lifetime.end.p0(i64 4, ptr %3) #4
  call void @llvm.lifetime.end.p0(i64 8, ptr %2) #4
  call void @llvm.lifetime.end.p0(i64 13, ptr %1) #4
  ret i32 %16
}